target datalayout = "e-m:e-p270:32:32-p271:32:32-p272:64:64-i64:64-i128:128-f80:128-n8:16:32:64-S128"
target triple = "x86_64-pc-linux-gnu"

%class.Node_List = type <{ %class.Node_Array, i32, [4 x i8] }>
%class.Node_Array = type { ptr, i32, ptr }
%class.IdealLoopTree = type <{ ptr, ptr, ptr, ptr, ptr, ptr, i32, i32, %class.Node_List, i16, i8, [5 x i8], ptr, ptr, i8, [7 x i8] }>
%class.Arena = type { i8, i8, i64, ptr, ptr, ptr, ptr }
%class.Thread = type { %class.ThreadShadow.base, i64, [43 x i64], ptr, ptr, i32, ptr, i64, i64, %class.ThreadLocalAllocBuffer, i64, %class.ThreadHeapSampler, %class.ThreadStatisticalInfo, %class.JfrThreadLocal, ptr, ptr, ptr, ptr, ptr, ptr, i64, i32, i32, ptr, i32, i32, i32, i32, i8, ptr }
%class.ThreadShadow.base = type <{ ptr, ptr, ptr, i32 }>
%class.ThreadLocalAllocBuffer = type <{ ptr, ptr, ptr, ptr, ptr, i64, i64, i64, i64, i32, i32, i32, i32, i64, %class.AdaptiveWeightedAverage, [4 x i8] }>
%class.AdaptiveWeightedAverage = type { float, i32, i32, i8, float }
%class.ThreadHeapSampler = type { i64 }
%class.ThreadStatisticalInfo = type { i64, i64 }
%class.JfrThreadLocal = type <{ ptr, ptr, ptr, ptr, ptr, ptr, ptr, ptr, ptr, ptr, %class.RefCountHandle, i64, i64, i64, i64, i64, i64, i64, i64, i64, i64, i64, i32, i32, i32, i16, i8, i8, i8, i8, i8, [5 x i8] }>
%class.RefCountHandle = type { ptr }

@_ZN6Thread12_thr_currentE = external thread_local global ptr, align 8

; Function Attrs: mustprogress nounwind uwtable
define linkonce_odr hidden void @_ZN4Copy16pd_zero_to_bytesEPvm(ptr noundef %0, i64 noundef %1) #1 comdat align 2 {
  %3 = alloca ptr, align 8
  %4 = alloca i64, align 8
  store ptr %0, ptr %3, align 8
  store i64 %1, ptr %4, align 8
  %5 = load ptr, ptr %3, align 8
  %6 = load i64, ptr %4, align 8
  call void @llvm.memset.p0.i64(ptr align 1 %5, i8 0, i64 %6, i1 false)
  ret void
}

; Function Attrs: mustprogress nounwind uwtable
define linkonce_odr hidden noundef i64 @_Z13pointer_deltaPVKvS0_m(ptr noundef %0, ptr noundef %1, i64 noundef %2) #1 comdat {
  %4 = alloca ptr, align 8
  %5 = alloca ptr, align 8
  %6 = alloca i64, align 8
  store ptr %0, ptr %4, align 8
  store ptr %1, ptr %5, align 8
  store i64 %2, ptr %6, align 8
  %7 = load ptr, ptr %4, align 8
  %8 = ptrtoint ptr %7 to i64
  %9 = load ptr, ptr %5, align 8
  %10 = ptrtoint ptr %9 to i64
  %11 = sub i64 %8, %10
  %12 = load i64, ptr %6, align 8
  %13 = udiv i64 %11, %12
  ret i64 %13
}

; Function Attrs: mustprogress nounwind uwtable
define linkonce_odr hidden noundef i64 @_Z10align_downImiTnNSt9enable_ifIXcvbsr3std11is_integralIT_EE5valueEiE4typeELi0EES1_S1_T0_(i64 noundef %0, i32 noundef %1) #1 comdat {
  %3 = alloca i64, align 8
  %4 = alloca i32, align 4
  %5 = alloca i64, align 8
  store i64 %0, ptr %3, align 8
  store i32 %1, ptr %4, align 4
  %6 = load i64, ptr %3, align 8
  %7 = load i32, ptr %4, align 4
  %8 = call noundef i32 @_ZL14alignment_maskIiTnNSt9enable_ifIXcvbsr3std11is_integralIT_EE5valueEiE4typeELi0EES1_S1_(i32 noundef %7)
  %9 = sext i32 %8 to i64
  %10 = xor i64 %9, -1
  %11 = and i64 %6, %10
  store i64 %11, ptr %5, align 8
  %12 = load i64, ptr %5, align 8
  ret i64 %12
}

; Function Attrs: mustprogress nounwind uwtable
define linkonce_odr hidden noundef i64 @_Z12checked_castImmET_T0_(i64 noundef %0) #1 comdat {
  %2 = alloca i64, align 8
  %3 = alloca i64, align 8
  store i64 %0, ptr %2, align 8
  %4 = load i64, ptr %2, align 8
  store i64 %4, ptr %3, align 8
  %5 = load i64, ptr %3, align 8
  ret i64 %5
}

; Function Attrs: mustprogress nounwind uwtable
define internal noundef i32 @_ZL14alignment_maskIiTnNSt9enable_ifIXcvbsr3std11is_integralIT_EE5valueEiE4typeELi0EES1_S1_(i32 noundef %0) #1 {
  %2 = alloca i32, align 4
  store i32 %0, ptr %2, align 4
  %3 = load i32, ptr %2, align 4
  %4 = sub nsw i32 %3, 1
  ret i32 %4
}

; Function Attrs: mustprogress nounwind uwtable
define linkonce_odr hidden void @_ZN4Copy13zero_to_bytesEPvm(ptr noundef %0, i64 noundef %1) #1 comdat align 2 {
  %3 = alloca ptr, align 8
  %4 = alloca i64, align 8
  store ptr %0, ptr %3, align 8
  store i64 %1, ptr %4, align 8
  %5 = load ptr, ptr %3, align 8
  %6 = load i64, ptr %4, align 8
  call void @_ZN4Copy16pd_zero_to_bytesEPvm(ptr noundef %5, i64 noundef %6)
  ret void
}

; Function Attrs: mustprogress nounwind uwtable
define linkonce_odr hidden noundef ptr @_ZN5Arena16internal_amallocEmN17AllocFailStrategy13AllocFailEnumE(ptr noundef nonnull align 8 dereferenceable(48) %0, i64 noundef %1, i32 noundef %2) #1 comdat align 2 {
  %4 = alloca ptr, align 8
  %5 = alloca ptr, align 8
  %6 = alloca i64, align 8
  %7 = alloca i32, align 4
  %8 = alloca ptr, align 8
  store ptr %0, ptr %5, align 8
  store i64 %1, ptr %6, align 8
  store i32 %2, ptr %7, align 4
  %9 = load ptr, ptr %5, align 8
  %10 = getelementptr inbounds %class.Arena, ptr %9, i32 0, i32 6
  %11 = load ptr, ptr %10, align 8
  %12 = getelementptr inbounds %class.Arena, ptr %9, i32 0, i32 5
  %13 = load ptr, ptr %12, align 8
  %14 = call noundef i64 @_Z13pointer_deltaPVKvS0_m(ptr noundef %11, ptr noundef %13, i64 noundef 1)
  %15 = load i64, ptr %6, align 8
  %16 = icmp uge i64 %14, %15
  br i1 %16, label %17, label %25

17:                                               ; preds = %3
  %18 = getelementptr inbounds %class.Arena, ptr %9, i32 0, i32 5
  %19 = load ptr, ptr %18, align 8
  store ptr %19, ptr %8, align 8
  %20 = load i64, ptr %6, align 8
  %21 = getelementptr inbounds %class.Arena, ptr %9, i32 0, i32 5
  %22 = load ptr, ptr %21, align 8
  %23 = getelementptr inbounds i8, ptr %22, i64 %20
  store ptr %23, ptr %21, align 8
  %24 = load ptr, ptr %8, align 8
  store ptr %24, ptr %4, align 8
  br label %29

25:                                               ; preds = %3
  %26 = load i64, ptr %6, align 8
  %27 = load i32, ptr %7, align 4
  %28 = call noundef ptr @_ZN5Arena4growEmN17AllocFailStrategy13AllocFailEnumE(ptr noundef nonnull align 8 dereferenceable(48) %9, i64 noundef %26, i32 noundef %27)
  store ptr %28, ptr %4, align 8
  br label %29

29:                                               ; preds = %25, %17
  %30 = load ptr, ptr %4, align 8
  ret ptr %30
}

; Function Attrs: mustprogress nounwind uwtable
define linkonce_odr hidden noundef i64 @_Z8align_upImiTnNSt9enable_ifIXcvbsr3std11is_integralIT_EE5valueEiE4typeELi0EES1_S1_T0_(i64 noundef %0, i32 noundef %1) #1 comdat {
  %3 = alloca i64, align 8
  %4 = alloca i32, align 4
  %5 = alloca i64, align 8
  store i64 %0, ptr %3, align 8
  store i32 %1, ptr %4, align 4
  %6 = load i64, ptr %3, align 8
  %7 = load i32, ptr %4, align 4
  %8 = call noundef i32 @_ZL14alignment_maskIiTnNSt9enable_ifIXcvbsr3std11is_integralIT_EE5valueEiE4typeELi0EES1_S1_(i32 noundef %7)
  %9 = sext i32 %8 to i64
  %10 = add i64 %6, %9
  %11 = call noundef i64 @_Z12checked_castImmET_T0_(i64 noundef %10)
  store i64 %11, ptr %5, align 8
  %12 = load i64, ptr %5, align 8
  %13 = load i32, ptr %4, align 4
  %14 = call noundef i64 @_Z10align_downImiTnNSt9enable_ifIXcvbsr3std11is_integralIT_EE5valueEiE4typeELi0EES1_S1_T0_(i64 noundef %12, i32 noundef %13)
  ret i64 %14
}

; Function Attrs: mustprogress nounwind uwtable
define linkonce_odr hidden void @_ZN10Node_Array5clearEv(ptr noundef nonnull align 8 dereferenceable(24) %0) #1 comdat align 2 {
  %2 = alloca ptr, align 8
  store ptr %0, ptr %2, align 8
  %3 = load ptr, ptr %2, align 8
  %4 = getelementptr inbounds %class.Node_Array, ptr %3, i32 0, i32 2
  %5 = load ptr, ptr %4, align 8
  %6 = getelementptr inbounds %class.Node_Array, ptr %3, i32 0, i32 1
  %7 = load i32, ptr %6, align 8
  %8 = zext i32 %7 to i64
  %9 = mul i64 %8, 8
  call void @_ZN4Copy13zero_to_bytesEPvm(ptr noundef %5, i64 noundef %9)
  ret void
}

; Function Attrs: mustprogress nounwind uwtable
define linkonce_odr hidden noundef ptr @_ZN5Arena7AmallocEmN17AllocFailStrategy13AllocFailEnumE(ptr noundef nonnull align 8 dereferenceable(48) %0, i64 noundef %1, i32 noundef %2) #1 comdat align 2 {
  %4 = alloca ptr, align 8
  %5 = alloca i64, align 8
  %6 = alloca i32, align 4
  store ptr %0, ptr %4, align 8
  store i64 %1, ptr %5, align 8
  store i32 %2, ptr %6, align 4
  %7 = load ptr, ptr %4, align 8
  %8 = load i64, ptr %5, align 8
  %9 = call noundef i64 @_Z8align_upImiTnNSt9enable_ifIXcvbsr3std11is_integralIT_EE5valueEiE4typeELi0EES1_S1_T0_(i64 noundef %8, i32 noundef 8)
  store i64 %9, ptr %5, align 8
  %10 = load i64, ptr %5, align 8
  %11 = load i32, ptr %6, align 4
  %12 = call noundef ptr @_ZN5Arena16internal_amallocEmN17AllocFailStrategy13AllocFailEnumE(ptr noundef nonnull align 8 dereferenceable(48) %7, i64 noundef %10, i32 noundef %11)
  ret ptr %12
}

; Function Attrs: mustprogress nounwind uwtable
define linkonce_odr hidden noundef ptr @_ZN6Thread15current_or_nullEv() #1 comdat align 2 {
  %1 = call align 8 ptr @llvm.threadlocal.address.p0(ptr align 8 @_ZN6Thread12_thr_currentE)
  %2 = load ptr, ptr %1, align 8
  ret ptr %2
}

; Function Attrs: mustprogress nounwind uwtable
define linkonce_odr hidden void @_ZN10Node_ArrayC2EP5Arenaj(ptr noundef nonnull align 8 dereferenceable(24) %0, ptr noundef %1, i32 noundef %2) unnamed_addr #1 comdat align 2 {
  %4 = alloca ptr, align 8
  %5 = alloca ptr, align 8
  %6 = alloca i32, align 4
  store ptr %0, ptr %4, align 8
  store ptr %1, ptr %5, align 8
  store i32 %2, ptr %6, align 4
  %7 = load ptr, ptr %4, align 8
  %8 = getelementptr inbounds %class.Node_Array, ptr %7, i32 0, i32 0
  %9 = load ptr, ptr %5, align 8
  store ptr %9, ptr %8, align 8
  %10 = getelementptr inbounds %class.Node_Array, ptr %7, i32 0, i32 1
  %11 = load i32, ptr %6, align 4
  store i32 %11, ptr %10, align 8
  %12 = load ptr, ptr %5, align 8
  %13 = load i32, ptr %6, align 4
  %14 = zext i32 %13 to i64
  %15 = mul i64 %14, 8
  %16 = call noundef ptr @_ZN5Arena7AmallocEmN17AllocFailStrategy13AllocFailEnumE(ptr noundef nonnull align 8 dereferenceable(48) %12, i64 noundef %15, i32 noundef 0)
  %17 = getelementptr inbounds %class.Node_Array, ptr %7, i32 0, i32 2
  store ptr %16, ptr %17, align 8
  call void @_ZN10Node_Array5clearEv(ptr noundef nonnull align 8 dereferenceable(24) %7)
  ret void
}

; Function Attrs: mustprogress nounwind uwtable
define linkonce_odr hidden noundef ptr @_ZNK6Thread13resource_areaEv(ptr noundef nonnull align 8 dereferenceable(888) %0) #1 comdat align 2 {
  %2 = alloca ptr, align 8
  store ptr %0, ptr %2, align 8
  %3 = load ptr, ptr %2, align 8
  %4 = getelementptr inbounds %class.Thread, ptr %3, i32 0, i32 16
  %5 = load ptr, ptr %4, align 8
  ret ptr %5
}

; Function Attrs: mustprogress nounwind uwtable
define linkonce_odr hidden noundef ptr @_ZN6Thread7currentEv() #1 comdat align 2 {
  %1 = alloca ptr, align 8
  %2 = call noundef ptr @_ZN6Thread15current_or_nullEv()
  store ptr %2, ptr %1, align 8
  %3 = load ptr, ptr %1, align 8
  ret ptr %3
}

; Function Attrs: mustprogress nounwind uwtable
define linkonce_odr hidden void @_ZN9Node_ListC2Ej(ptr noundef nonnull align 8 dereferenceable(28) %0, i32 noundef %1) unnamed_addr #1 comdat align 2 {
  %3 = alloca ptr, align 8
  %4 = alloca i32, align 4
  store ptr %0, ptr %3, align 8
  store i32 %1, ptr %4, align 4
  %5 = load ptr, ptr %3, align 8
  %6 = call noundef ptr @_ZN6Thread7currentEv()
  %7 = call noundef ptr @_ZNK6Thread13resource_areaEv(ptr noundef nonnull align 8 dereferenceable(888) %6)
  %8 = load i32, ptr %4, align 4
  call void @_ZN10Node_ArrayC2EP5Arenaj(ptr noundef nonnull align 8 dereferenceable(24) %5, ptr noundef %7, i32 noundef %8)
  %9 = getelementptr inbounds %class.Node_List, ptr %5, i32 0, i32 1
  store i32 0, ptr %9, align 8
  ret void
}

; Function Attrs: mustprogress nounwind uwtable
define linkonce_odr hidden void @_ZN13IdealLoopTreeC2EP14PhaseIdealLoopP4NodeS3_(ptr noundef nonnull align 8 dereferenceable(113) %0, ptr noundef %1, ptr noundef %2, ptr noundef %3) unnamed_addr #1 comdat align 2 {
  %5 = alloca ptr, align 8
  %6 = alloca ptr, align 8
  %7 = alloca ptr, align 8
  %8 = alloca ptr, align 8
  store ptr %0, ptr %5, align 8
  store ptr %1, ptr %6, align 8
  store ptr %2, ptr %7, align 8
  store ptr %3, ptr %8, align 8
  %9 = load ptr, ptr %5, align 8
  %10 = getelementptr inbounds %class.IdealLoopTree, ptr %9, i32 0, i32 0
  store ptr null, ptr %10, align 8
  %11 = getelementptr inbounds %class.IdealLoopTree, ptr %9, i32 0, i32 1
  store ptr null, ptr %11, align 8
  %12 = getelementptr inbounds %class.IdealLoopTree, ptr %9, i32 0, i32 2
  store ptr null, ptr %12, align 8
  %13 = getelementptr inbounds %class.IdealLoopTree, ptr %9, i32 0, i32 3
  %14 = load ptr, ptr %7, align 8
  store ptr %14, ptr %13, align 8
  %15 = getelementptr inbounds %class.IdealLoopTree, ptr %9, i32 0, i32 4
  %16 = load ptr, ptr %8, align 8
  store ptr %16, ptr %15, align 8
  %17 = getelementptr inbounds %class.IdealLoopTree, ptr %9, i32 0, i32 5
  %18 = load ptr, ptr %6, align 8
  store ptr %18, ptr %17, align 8
  %19 = getelementptr inbounds %class.IdealLoopTree, ptr %9, i32 0, i32 6
  store i32 0, ptr %19, align 8
  %20 = getelementptr inbounds %class.IdealLoopTree, ptr %9, i32 0, i32 7
  store i32 0, ptr %20, align 4
  %21 = getelementptr inbounds %class.IdealLoopTree, ptr %9, i32 0, i32 8
  call void @_ZN9Node_ListC2Ej(ptr noundef nonnull align 8 dereferenceable(28) %21, i32 noundef 4)
  %22 = getelementptr inbounds %class.IdealLoopTree, ptr %9, i32 0, i32 9
  store i16 0, ptr %22, align 8
  %23 = getelementptr inbounds %class.IdealLoopTree, ptr %9, i32 0, i32 10
  %24 = load i8, ptr %23, align 2
  %25 = and i8 %24, -2
  %26 = or i8 %25, 0
  store i8 %26, ptr %23, align 2
  %27 = getelementptr inbounds %class.IdealLoopTree, ptr %9, i32 0, i32 10
  %28 = load i8, ptr %27, align 2
  %29 = and i8 %28, -3
  %30 = or i8 %29, 0
  store i8 %30, ptr %27, align 2
  %31 = getelementptr inbounds %class.IdealLoopTree, ptr %9, i32 0, i32 10
  %32 = load i8, ptr %31, align 2
  %33 = and i8 %32, -5
  %34 = or i8 %33, 0
  store i8 %34, ptr %31, align 2
  %35 = getelementptr inbounds %class.IdealLoopTree, ptr %9, i32 0, i32 10
  %36 = load i8, ptr %35, align 2
  %37 = and i8 %36, -9
  %38 = or i8 %37, 0
  store i8 %38, ptr %35, align 2
  %39 = getelementptr inbounds %class.IdealLoopTree, ptr %9, i32 0, i32 10
  %40 = load i8, ptr %39, align 2
  %41 = and i8 %40, -17
  %42 = or i8 %41, 0
  store i8 %42, ptr %39, align 2
  %43 = getelementptr inbounds %class.IdealLoopTree, ptr %9, i32 0, i32 10
  %44 = load i8, ptr %43, align 2
  %45 = and i8 %44, -33
  %46 = or i8 %45, 0
  store i8 %46, ptr %43, align 2
  %47 = getelementptr inbounds %class.IdealLoopTree, ptr %9, i32 0, i32 12
  store ptr null, ptr %47, align 8
  %48 = getelementptr inbounds %class.IdealLoopTree, ptr %9, i32 0, i32 13
  store ptr null, ptr %48, align 8
  %49 = getelementptr inbounds %class.IdealLoopTree, ptr %9, i32 0, i32 14
  store i8 1, ptr %49, align 8
  ret void
}

; Function Attrs: mustprogress nounwind uwtable
define linkonce_odr hidden noundef ptr @_ZN11ResourceObjnwEm(i64 noundef %0) #1 comdat align 2 {
  %2 = alloca i64, align 8
  store i64 %0, ptr %2, align 8
  %3 = load i64, ptr %2, align 8
  %4 = call noundef ptr @_Z23resource_allocate_bytesmN17AllocFailStrategy13AllocFailEnumE(i64 noundef %3, i32 noundef 0)
  ret ptr %4
}

; Function Attrs: mustprogress nounwind uwtable
define hidden noundef ptr @_ZN14PhaseIdealLoop17insert_outer_loopEP13IdealLoopTreeP8LoopNodeP4Node(ptr noundef nonnull align 8 dereferenceable(237) %0, ptr noundef %1, ptr noundef %2, ptr noundef %3) #1 align 2 {
  %5 = alloca ptr, align 8
  %6 = alloca ptr, align 8
  %7 = alloca ptr, align 8
  %8 = alloca ptr, align 8
  %9 = alloca ptr, align 8
  %10 = alloca ptr, align 8
  %11 = alloca ptr, align 8
  store ptr %0, ptr %5, align 8
  store ptr %1, ptr %6, align 8
  store ptr %2, ptr %7, align 8
  store ptr %3, ptr %8, align 8
  %12 = load ptr, ptr %5, align 8
  %13 = call noundef ptr @_ZN11ResourceObjnwEm(i64 noundef 120)
  %14 = load ptr, ptr %7, align 8
  %15 = load ptr, ptr %8, align 8
  call void @_ZN13IdealLoopTreeC2EP14PhaseIdealLoopP4NodeS3_(ptr noundef nonnull align 8 dereferenceable(113) %13, ptr noundef %12, ptr noundef %14, ptr noundef %15)
  store ptr %13, ptr %9, align 8
  %16 = load ptr, ptr %6, align 8
  %17 = getelementptr inbounds %class.IdealLoopTree, ptr %16, i32 0, i32 0
  %18 = load ptr, ptr %17, align 8
  store ptr %18, ptr %10, align 8
  %19 = load ptr, ptr %10, align 8
  %20 = getelementptr inbounds %class.IdealLoopTree, ptr %19, i32 0, i32 2
  %21 = load ptr, ptr %20, align 8
  store ptr %21, ptr %11, align 8
  %22 = load ptr, ptr %11, align 8
  %23 = load ptr, ptr %6, align 8
  %24 = icmp eq ptr %22, %23
  br i1 %24, label %25, label %29

25:                                               ; preds = %4
  %26 = load ptr, ptr %9, align 8
  %27 = load ptr, ptr %10, align 8
  %28 = getelementptr inbounds %class.IdealLoopTree, ptr %27, i32 0, i32 2
  store ptr %26, ptr %28, align 8
  br label %44

29:                                               ; preds = %4
  br label %30

30:                                               ; preds = %36, %29
  %31 = load ptr, ptr %11, align 8
  %32 = getelementptr inbounds %class.IdealLoopTree, ptr %31, i32 0, i32 1
  %33 = load ptr, ptr %32, align 8
  %34 = load ptr, ptr %6, align 8
  %35 = icmp ne ptr %33, %34
  br i1 %35, label %36, label %40

36:                                               ; preds = %30
  %37 = load ptr, ptr %11, align 8
  %38 = getelementptr inbounds %class.IdealLoopTree, ptr %37, i32 0, i32 1
  %39 = load ptr, ptr %38, align 8
  store ptr %39, ptr %11, align 8
  br label %30, !llvm.loop !12

40:                                               ; preds = %30
  %41 = load ptr, ptr %9, align 8
  %42 = load ptr, ptr %11, align 8
  %43 = getelementptr inbounds %class.IdealLoopTree, ptr %42, i32 0, i32 1
  store ptr %41, ptr %43, align 8
  br label %44

44:                                               ; preds = %40, %25
  %45 = load ptr, ptr %6, align 8
  %46 = getelementptr inbounds %class.IdealLoopTree, ptr %45, i32 0, i32 1
  %47 = load ptr, ptr %46, align 8
  %48 = load ptr, ptr %9, align 8
  %49 = getelementptr inbounds %class.IdealLoopTree, ptr %48, i32 0, i32 1
  store ptr %47, ptr %49, align 8
  %50 = load ptr, ptr %10, align 8
  %51 = load ptr, ptr %9, align 8
  %52 = getelementptr inbounds %class.IdealLoopTree, ptr %51, i32 0, i32 0
  store ptr %50, ptr %52, align 8
  %53 = load ptr, ptr %6, align 8
  %54 = load ptr, ptr %9, align 8
  %55 = getelementptr inbounds %class.IdealLoopTree, ptr %54, i32 0, i32 2
  store ptr %53, ptr %55, align 8
  %56 = load ptr, ptr %6, align 8
  %57 = getelementptr inbounds %class.IdealLoopTree, ptr %56, i32 0, i32 9
  %58 = load i16, ptr %57, align 8
  %59 = load ptr, ptr %9, align 8
  %60 = getelementptr inbounds %class.IdealLoopTree, ptr %59, i32 0, i32 9
  store i16 %58, ptr %60, align 8
  %61 = load ptr, ptr %9, align 8
  %62 = load ptr, ptr %6, align 8
  %63 = getelementptr inbounds %class.IdealLoopTree, ptr %62, i32 0, i32 0
  store ptr %61, ptr %63, align 8
  %64 = load ptr, ptr %6, align 8
  %65 = getelementptr inbounds %class.IdealLoopTree, ptr %64, i32 0, i32 1
  store ptr null, ptr %65, align 8
  %66 = load ptr, ptr %6, align 8
  %67 = getelementptr inbounds %class.IdealLoopTree, ptr %66, i32 0, i32 9
  %68 = load i16, ptr %67, align 8
  %69 = add i16 %68, 1
  store i16 %69, ptr %67, align 8
  %70 = load ptr, ptr %9, align 8
  ret ptr %70
}