; Function Attrs: mustprogress nounwind uwtable
define hidden noundef ptr @_ZN14PhaseIdealLoop17insert_outer_loopEP13IdealLoopTreeP8LoopNodeP4Node(ptr noundef nonnull align 8 dereferenceable(237) %0, ptr noundef %1, ptr noundef %2, ptr noundef %3) local_unnamed_addr #0 align 2 {
  %5 = tail call noundef ptr @_Z23resource_allocate_bytesmN17AllocFailStrategy13AllocFailEnumE(i64 noundef 120, i32 noundef 0) #15
  %6 = getelementptr inbounds i8, ptr %5, i64 24
  tail call void @llvm.memset.p0.i64(ptr noundef nonnull align 8 dereferenceable(24) %5, i8 0, i64 24, i1 false)
  store ptr %2, ptr %6, align 8
  %7 = getelementptr inbounds i8, ptr %5, i64 32
  store ptr %3, ptr %7, align 8
  %8 = getelementptr inbounds i8, ptr %5, i64 40
  store ptr %0, ptr %8, align 8
  %9 = getelementptr inbounds i8, ptr %5, i64 48
  store i32 0, ptr %9, align 8
  %10 = getelementptr inbounds i8, ptr %5, i64 52
  store i32 0, ptr %10, align 4
  %11 = getelementptr inbounds i8, ptr %5, i64 56
  %12 = tail call align 8 ptr @llvm.threadlocal.address.p0(ptr align 8 @_ZN6Thread12_thr_currentE)
  %13 = load ptr, ptr %12, align 8
  %14 = getelementptr inbounds i8, ptr %13, i64 800
  %15 = load ptr, ptr %14, align 8
  store ptr %15, ptr %11, align 8
  %16 = getelementptr inbounds i8, ptr %5, i64 64
  store i32 4, ptr %16, align 8
  %17 = getelementptr inbounds i8, ptr %15, i64 40
  %18 = load ptr, ptr %17, align 8
  %19 = getelementptr inbounds i8, ptr %15, i64 32
  %20 = load ptr, ptr %19, align 8
  %21 = ptrtoint ptr %18 to i64
  %22 = ptrtoint ptr %20 to i64
  %23 = sub i64 %21, %22
  %.not.i.i.i.i.i = icmp ult i64 %23, 32
  br i1 %.not.i.i.i.i.i, label %26, label %24

24:                                               ; preds = %4
  %25 = getelementptr inbounds i8, ptr %20, i64 32
  store ptr %25, ptr %19, align 8
  br label %_ZN13IdealLoopTreeC2EP14PhaseIdealLoopP4NodeS3_.exit

26:                                               ; preds = %4
  %27 = tail call noundef ptr @_ZN5Arena4growEmN17AllocFailStrategy13AllocFailEnumE(ptr noundef nonnull align 8 dereferenceable(48) %15, i64 noundef 32, i32 noundef 0) #15
  br label %_ZN13IdealLoopTreeC2EP14PhaseIdealLoopP4NodeS3_.exit

_ZN13IdealLoopTreeC2EP14PhaseIdealLoopP4NodeS3_.exit: ; preds = %24, %26
  %.0.i.i.i.i.i = phi ptr [ %20, %24 ], [ %27, %26 ]
  %28 = getelementptr inbounds i8, ptr %5, i64 72
  store ptr %.0.i.i.i.i.i, ptr %28, align 8
  %29 = load i32, ptr %16, align 8
  %30 = zext i32 %29 to i64
  %31 = shl nuw nsw i64 %30, 3
  tail call void @llvm.memset.p0.i64(ptr align 1 %.0.i.i.i.i.i, i8 0, i64 %31, i1 false)
  %32 = getelementptr inbounds i8, ptr %5, i64 80
  store i32 0, ptr %32, align 8
  %33 = getelementptr inbounds i8, ptr %5, i64 88
  store i16 0, ptr %33, align 8
  %34 = getelementptr inbounds i8, ptr %5, i64 90
  %35 = load i8, ptr %34, align 2
  %36 = and i8 %35, -64
  store i8 %36, ptr %34, align 2
  %37 = getelementptr inbounds i8, ptr %5, i64 96
  %38 = getelementptr inbounds i8, ptr %5, i64 112
  tail call void @llvm.memset.p0.i64(ptr noundef nonnull align 8 dereferenceable(16) %37, i8 0, i64 16, i1 false)
  store i8 1, ptr %38, align 8
  %39 = load ptr, ptr %1, align 8
  %40 = getelementptr inbounds i8, ptr %39, i64 16
  %41 = load ptr, ptr %40, align 8
  %42 = icmp eq ptr %41, %1
  br i1 %42, label %47, label %.preheader

.preheader:                                       ; preds = %_ZN13IdealLoopTreeC2EP14PhaseIdealLoopP4NodeS3_.exit, %.preheader
  %.0 = phi ptr [ %44, %.preheader ], [ %41, %_ZN13IdealLoopTreeC2EP14PhaseIdealLoopP4NodeS3_.exit ]
  %43 = getelementptr inbounds i8, ptr %.0, i64 8
  %44 = load ptr, ptr %43, align 8
  %.not = icmp eq ptr %44, %1
  br i1 %.not, label %45, label %.preheader, !llvm.loop !14

45:                                               ; preds = %.preheader
  %46 = getelementptr inbounds i8, ptr %.0, i64 8
  br label %47

47:                                               ; preds = %_ZN13IdealLoopTreeC2EP14PhaseIdealLoopP4NodeS3_.exit, %45
  %.sink = phi ptr [ %46, %45 ], [ %40, %_ZN13IdealLoopTreeC2EP14PhaseIdealLoopP4NodeS3_.exit ]
  store ptr %5, ptr %.sink, align 8
  %48 = getelementptr inbounds i8, ptr %1, i64 8
  %49 = load ptr, ptr %48, align 8
  %50 = getelementptr inbounds i8, ptr %5, i64 8
  store ptr %49, ptr %50, align 8
  store ptr %39, ptr %5, align 8
  %51 = getelementptr inbounds i8, ptr %5, i64 16
  store ptr %1, ptr %51, align 8
  %52 = getelementptr inbounds i8, ptr %1, i64 88
  %53 = load i16, ptr %52, align 8
  store i16 %53, ptr %33, align 8
  store ptr %5, ptr %1, align 8
  store ptr null, ptr %48, align 8
  %54 = add i16 %53, 1
  store i16 %54, ptr %52, align 8
  ret ptr %5
}